; Function Attrs: mustprogress uwtable
define void @_ZN7rocksdb18BlockCreateContext6CreateEPSt10unique_ptrINS_12Block_kIndexESt14default_deleteIS2_EEONS_13BlockContentsE(ptr noundef nonnull readonly align 8 captures(none) dereferenceable(48) %0, ptr noundef captures(none) %1, ptr noundef nonnull align 8 dereferenceable(32) %2) local_unnamed_addr #3 align 2 personality ptr @__gxx_personality_v0 {
  %4 = tail call noalias noundef nonnull dereferenceable(88) ptr @_Znwm(i64 noundef 88) #18
  %5 = getelementptr inbounds nuw i8, ptr %0, i64 16
  %6 = load ptr, ptr %5, align 8, !tbaa !57
  invoke void @_ZN7rocksdb5BlockC2EONS_13BlockContentsEmPNS_10StatisticsE(ptr noundef nonnull align 8 dereferenceable(84) %4, ptr noundef nonnull align 8 dereferenceable(32) %2, i64 noundef 0, ptr noundef %6)
          to label %_ZN7rocksdb12Block_kIndexCI2NS_5BlockEEONS_13BlockContentsEmPNS_10StatisticsE.exit unwind label %19

_ZN7rocksdb12Block_kIndexCI2NS_5BlockEEONS_13BlockContentsEmPNS_10StatisticsE.exit: ; preds = %3
  %7 = load ptr, ptr %1, align 8, !tbaa !62
  store ptr %4, ptr %1, align 8, !tbaa !62
  %.not.i.i = icmp eq ptr %7, null
  br i1 %.not.i.i, label %_ZNSt10unique_ptrIN7rocksdb12Block_kIndexESt14default_deleteIS1_EE5resetEPS1_.exit, label %_ZNKSt14default_deleteIN7rocksdb12Block_kIndexEEclEPS1_.exit.i.i

_ZNKSt14default_deleteIN7rocksdb12Block_kIndexEEclEPS1_.exit.i.i: ; preds = %_ZN7rocksdb12Block_kIndexCI2NS_5BlockEEONS_13BlockContentsEmPNS_10StatisticsE.exit
  tail call void @_ZN7rocksdb5BlockD2Ev(ptr noundef nonnull align 8 dereferenceable(84) %7) #19
  tail call void @_ZdlPvm(ptr noundef nonnull %7, i64 noundef 88) #17
  %.pre = load ptr, ptr %1, align 8, !tbaa !62
  br label %_ZNSt10unique_ptrIN7rocksdb12Block_kIndexESt14default_deleteIS1_EE5resetEPS1_.exit

_ZNSt10unique_ptrIN7rocksdb12Block_kIndexESt14default_deleteIS1_EE5resetEPS1_.exit: ; preds = %_ZN7rocksdb12Block_kIndexCI2NS_5BlockEEONS_13BlockContentsEmPNS_10StatisticsE.exit, %_ZNKSt14default_deleteIN7rocksdb12Block_kIndexEEclEPS1_.exit.i.i
  %8 = phi ptr [ %4, %_ZN7rocksdb12Block_kIndexCI2NS_5BlockEEONS_13BlockContentsEmPNS_10StatisticsE.exit ], [ %.pre, %_ZNKSt14default_deleteIN7rocksdb12Block_kIndexEEclEPS1_.exit.i.i ]
  %9 = getelementptr inbounds nuw i8, ptr %0, i64 45
  %10 = load i8, ptr %9, align 1, !tbaa !60
  %11 = getelementptr inbounds nuw i8, ptr %0, i64 24
  %12 = load ptr, ptr %11, align 8, !tbaa !61
  %13 = getelementptr inbounds nuw i8, ptr %0, i64 46
  %14 = load i8, ptr %13, align 2, !tbaa !64, !range !65, !noundef !66
  %15 = trunc nuw i8 %14 to i1
  %16 = getelementptr inbounds nuw i8, ptr %0, i64 47
  %17 = load i8, ptr %16, align 1, !tbaa !67, !range !65, !noundef !66
  %18 = trunc nuw i8 %17 to i1
  tail call void @_ZN7rocksdb5Block34InitializeIndexBlockProtectionInfoEhPKNS_10ComparatorEbb(ptr noundef nonnull align 8 dereferenceable(84) %8, i8 noundef zeroext %10, ptr noundef %12, i1 noundef zeroext %15, i1 noundef zeroext %18)
  ret void

19:                                               ; preds = %3
  %20 = landingpad { ptr, i32 }
          cleanup
  tail call void @_ZdlPvm(ptr noundef nonnull %4, i64 noundef 88) #17
  resume { ptr, i32 } %20
}